; Function Attrs: mustprogress uwtable
define void @_ZN3g2o10DrawAction9drawCacheEPNS_14CacheContainerEPNS_23HyperGraphElementAction10ParametersE(ptr noundef nonnull readonly align 8 captures(none) dereferenceable(96) %0, ptr noundef readonly captures(address) %1, ptr noundef %2) local_unnamed_addr #9 align 2 personality ptr @__gxx_personality_v0 {
  %.not = icmp eq ptr %1, null
  br i1 %.not, label %.loopexit, label %4

4:                                                ; preds = %3
  %5 = getelementptr inbounds nuw i8, ptr %1, i64 32
  %6 = load ptr, ptr %5, align 8, !tbaa !29
  %7 = getelementptr inbounds nuw i8, ptr %1, i64 16
  %.not910 = icmp eq ptr %6, %7
  br i1 %.not910, label %.loopexit, label %.lr.ph

.lr.ph:                                           ; preds = %4
  %8 = getelementptr inbounds nuw i8, ptr %0, i64 88
  br label %9

9:                                                ; preds = %.lr.ph, %9
  %.sroa.06.011 = phi ptr [ %6, %.lr.ph ], [ %16, %9 ]
  %10 = getelementptr inbounds nuw i8, ptr %.sroa.06.011, i64 88
  %11 = load ptr, ptr %10, align 8, !tbaa !93
  %12 = load ptr, ptr %8, align 8, !tbaa !77
  %13 = load ptr, ptr %12, align 8, !tbaa !14
  %14 = load ptr, ptr %13, align 8
  %15 = tail call noundef ptr %14(ptr noundef nonnull align 8 dereferenceable(72) %12, ptr noundef %11, ptr noundef %2)
  %16 = tail call noundef ptr @_ZSt18_Rb_tree_incrementPSt18_Rb_tree_node_base(ptr noundef %.sroa.06.011) #29
  %.not9 = icmp eq ptr %16, %7
  br i1 %.not9, label %.loopexit, label %9, !llvm.loop !102

.loopexit:                                        ; preds = %9, %4, %3
  ret void
}